Certificate:
    Data:
        Version: 3 (0x2)
        Serial Number: 1 (0x1)
        Signature Algorithm: md5WithRSAEncryption
        Issuer: C=IR, ST=Tehran, L=Tehran, O=Kishware, OU=Internet, CN=CAManager/emailAddress=CAOperator@kishware.com
        Validity
            Not Before: Jan  4 06:58:10 2004 GMT
            Not After : Jan  3 06:58:10 2005 GMT
        Subject: C=IR, ST=Tehran, L=Tehran, O=Kishware, OU=Internet, CN=amirzaei.tosanltd.com/emailAddress=webmaster@amirzaei.tosanltd.com
        Subject Public Key Info:
            Public Key Algorithm: rsaEncryption
            RSA Public Key: (1024 bit)
                Modulus (1024 bit):
                    00:ea:ad:06:37:24:18:f4:cb:ed:91:86:9e:d0:0f:
                    29:74:f7:db:ba:95:76:59:50:fd:7b:1d:14:2a:f1:
                    2c:a9:32:bc:8f:cd:07:f3:9d:21:af:9d:a8:d2:a2:
                    43:63:5e:20:48:99:02:4a:4d:43:63:33:37:92:08:
                    7e:d7:fa:e5:40:b9:08:e6:7f:96:3c:7d:b5:ff:b8:
                    7f:73:b0:ad:1c:ad:fc:f1:71:c6:fe:38:c8:72:46:
                    ac:c8:45:d3:33:db:b9:87:d6:a0:69:f2:8a:a2:6c:
                    6d:ec:df:62:8e:8d:bf:05:73:f3:eb:da:d9:83:38:
                    d6:7d:60:dd:ef:fe:80:0b:df
                Exponent: 65537 (0x10001)
        X509v3 extensions:
            X509v3 Basic Constraints: 
            CA:FALSE
            Netscape Comment: 
            OpenSSL Generated Certificate
            X509v3 Subject Key Identifier: 
            C5:BA:9E:A8:1B:B5:EC:F8:38:CB:63:D0:76:2F:50:DF:B1:DF:A7:37
            X509v3 Authority Key Identifier: 
            keyid:AC:93:F1:EC:E0:44:5E:4D:8E:F9:B8:65:9B:E1:00:72:9B:E4:AD:B4
            DirName:/C=IR/ST=Tehran/L=Tehran/O=Kishware/OU=Internet/CN=CAManager/emailAddress=CAOperator@kishware.com
            serial:00

    Signature Algorithm: md5WithRSAEncryption
        c9:bf:73:af:2a:b5:a1:48:73:af:d0:bb:d0:5d:fc:2d:48:79:
        fe:1c:af:08:b1:b9:54:92:52:ad:6f:26:56:ba:9e:71:3c:f7:
        e7:59:25:33:4f:58:ee:4f:c2:47:f3:53:b2:ae:62:22:b2:77:
        58:f7:56:4e:3d:72:0c:a2:f8:8d:4b:96:53:90:c3:5e:68:a0:
        41:05:d1:e2:c8:5a:34:7c:df:8b:cc:42:31:d6:af:2b:2d:e6:
        4a:ab:87:7c:9f:da:1d:4d:2d:c4:13:57:96:13:af:cc:f0:84:
        03:d1:d6:85:9c:2c:e9:ab:b5:1d:d6:8d:50:8d:48:91:a4:14:
        9b:65
-----BEGIN CERTIFICATE-----
MIIDzTCCAzagAwIBAgIBATANBgkqhkiG9w0BAQQFADCBkTELMAkGA1UEBhMCSVIx
DzANBgNVBAgTBlRlaHJhbjEPMA0GA1UEBxMGVGVocmFuMREwDwYDVQQKEwhLaXNo
d2FyZTERMA8GA1UECxMISW50ZXJuZXQxEjAQBgNVBAMTCUNBTWFuYWdlcjEmMCQG
CSqGSIb3DQEJARYXQ0FPcGVyYXRvckBraXNod2FyZS5jb20wHhcNMDQwMTA0MDY1
ODEwWhcNMDUwMTAzMDY1ODEwWjCBpTELMAkGA1UEBhMCSVIxDzANBgNVBAgTBlRl
aHJhbjEPMA0GA1UEBxMGVGVocmFuMREwDwYDVQQKEwhLaXNod2FyZTERMA8GA1UE
CxMISW50ZXJuZXQxHjAcBgNVBAMTFWFtaXJ6YWVpLnRvc2FubHRkLmNvbTEuMCwG
CSqGSIb3DQEJARYfd2VibWFzdGVyQGFtaXJ6YWVpLnRvc2FubHRkLmNvbTCBnzAN
BgkqhkiG9w0BAQEFAAOBjQAwgYkCgYEA6q0GNyQY9MvtkYae0A8pdPfbupV2WVD9
ex0UKvEsqTK8j80H850hr52o0qJDY14gSJkCSk1DYzM3kgh+1/rlQLkI5n+WPH21
/7h/c7CtHK388XHG/jjIckasyEXTM9u5h9agafKKomxt7N9ijo2/BXPz69rZgzjW
fWDd7/6AC98CAwEAAaOCAR0wggEZMAkGA1UdEwQCMAAwLAYJYIZIAYb4QgENBB8W
HU9wZW5TU0wgR2VuZXJhdGVkIENlcnRpZmljYXRlMB0GA1UdDgQWBBTFup6oG7Xs
+DjLY9B2L1Dfsd+nNzCBvgYDVR0jBIG2MIGzgBSsk/Hs4EReTY75uGWb4QBym+St
tKGBl6SBlDCBkTELMAkGA1UEBhMCSVIxDzANBgNVBAgTBlRlaHJhbjEPMA0GA1UE
BxMGVGVocmFuMREwDwYDVQQKEwhLaXNod2FyZTERMA8GA1UECxMISW50ZXJuZXQx
EjAQBgNVBAMTCUNBTWFuYWdlcjEmMCQGCSqGSIb3DQEJARYXQ0FPcGVyYXRvckBr
aXNod2FyZS5jb22CAQAwDQYJKoZIhvcNAQEEBQADgYEAyb9zryq1oUhzr9C70F38
LUh5/hyvCLG5VJJSrW8mVrqecTz351klM09Y7k/CR/NTsq5iIrJ3WPdWTj1yDKL4
jUuWU5DDXmigQQXR4shaNHzfi8xCMdavKy3mSquHfJ/aHU0txBNXlhOvzPCEA9HW
hZws6au1HdaNUI1IkaQUm2U=
-----END CERTIFICATE-----
