Certificate:
    Data:
        Version: 3 (0x2)
        Serial Number: 1 (0x1)
        Signature Algorithm: md5WithRSAEncryption
        Issuer: C=IR, ST=Tehran, L=Tehran, O=Kishware, OU=Internet, CN=CA Manager/Email=camanager@kishware.com
        Validity
            Not Before: Oct 27 11:53:04 2003 GMT
            Not After : Oct 26 11:53:04 2004 GMT
        Subject: C=IR, ST=Tehran, L=Tehran, O=Kishware, OU=Internet, CN=192.168.1.22/Email=admin@kishware.com
        Subject Public Key Info:
            Public Key Algorithm: rsaEncryption
            RSA Public Key: (1024 bit)
                Modulus (1024 bit):
                    00:b9:31:30:61:f4:24:4a:31:00:1c:5d:35:b8:03:
                    b6:3b:44:f0:31:a7:5e:f2:22:c0:c7:d3:56:62:98:
                    29:58:f7:8a:c9:f9:19:9d:6c:66:ff:fc:00:db:a1:
                    15:fa:c3:1e:e7:b9:15:6a:90:eb:d2:23:86:17:77:
                    bf:74:f4:f8:f7:59:f3:ce:e2:5d:c9:87:2e:c0:cc:
                    a7:c6:1f:4b:98:c9:51:c9:12:ef:3c:1b:bb:2d:95:
                    5c:a7:ac:1a:61:79:e1:77:26:62:cb:47:16:0e:41:
                    cf:0c:6f:38:9a:34:fc:6c:c6:8b:91:ef:23:87:db:
                    03:bc:c8:ed:88:45:e6:8f:a5
                Exponent: 65537 (0x10001)
        X509v3 extensions:
            X509v3 Basic Constraints: 
                CA:FALSE
            Netscape Comment: 
                OpenSSL Generated Certificate
            X509v3 Subject Key Identifier: 
                A7:E0:BD:7E:7C:70:76:DA:97:59:1A:25:CA:04:BB:1B:B1:6C:34:21
            X509v3 Authority Key Identifier: 
                keyid:9D:E7:18:8D:D4:60:17:F1:DC:54:B2:0F:E8:A9:8A:72:A0:0E:00:AD
                DirName:/C=IR/ST=Tehran/L=Tehran/O=Kishware/OU=Internet/CN=CA Manager/Email=camanager@kishware.com
                serial:00

    Signature Algorithm: md5WithRSAEncryption
        74:07:43:57:26:40:51:17:f4:26:a1:f6:5f:5e:56:6d:e0:96:
        a5:5e:92:89:95:16:1d:71:b8:3d:a1:7f:a1:39:1c:d4:8f:79:
        7e:79:7b:7b:4e:fd:33:e4:26:49:2d:2d:e2:fe:47:45:7f:5b:
        a1:e5:c5:d8:62:9f:c7:49:c1:55:b0:b4:98:79:69:8f:f2:2b:
        31:a8:a6:61:00:22:9a:0d:ea:c6:94:da:7b:fb:93:d1:35:5f:
        26:2f:1e:58:2e:67:a6:af:2e:c2:51:c2:f2:e5:a4:1f:bf:d3:
        36:e8:a7:32:fa:a7:06:92:38:ab:15:00:b9:36:ca:54:fe:07:
        57:94
-----BEGIN CERTIFICATE-----
MIIDtzCCAyCgAwIBAgIBATANBgkqhkiG9w0BAQQFADCBkTELMAkGA1UEBhMCSVIx
DzANBgNVBAgTBlRlaHJhbjEPMA0GA1UEBxMGVGVocmFuMREwDwYDVQQKEwhLaXNo
d2FyZTERMA8GA1UECxMISW50ZXJuZXQxEzARBgNVBAMTCkNBIE1hbmFnZXIxJTAj
BgkqhkiG9w0BCQEWFmNhbWFuYWdlckBraXNod2FyZS5jb20wHhcNMDMxMDI3MTE1
MzA0WhcNMDQxMDI2MTE1MzA0WjCBjzELMAkGA1UEBhMCSVIxDzANBgNVBAgTBlRl
aHJhbjEPMA0GA1UEBxMGVGVocmFuMREwDwYDVQQKEwhLaXNod2FyZTERMA8GA1UE
CxMISW50ZXJuZXQxFTATBgNVBAMTDDE5Mi4xNjguMS4yMjEhMB8GCSqGSIb3DQEJ
ARYSYWRtaW5Aa2lzaHdhcmUuY29tMIGfMA0GCSqGSIb3DQEBAQUAA4GNADCBiQKB
gQC5MTBh9CRKMQAcXTW4A7Y7RPAxp17yIsDH01ZimClY94rJ+RmdbGb//ADboRX6
wx7nuRVqkOvSI4YXd7909Pj3WfPO4l3Jhy7AzKfGH0uYyVHJEu88G7stlVynrBph
eeF3JmLLRxYOQc8MbziaNPxsxouR7yOH2wO8yO2IReaPpQIDAQABo4IBHTCCARkw
CQYDVR0TBAIwADAsBglghkgBhvhCAQ0EHxYdT3BlblNTTCBHZW5lcmF0ZWQgQ2Vy
dGlmaWNhdGUwHQYDVR0OBBYEFKfgvX58cHbal1kaJcoEuxuxbDQhMIG+BgNVHSME
gbYwgbOAFJ3nGI3UYBfx3FSyD+ipinKgDgCtoYGXpIGUMIGRMQswCQYDVQQGEwJJ
UjEPMA0GA1UECBMGVGVocmFuMQ8wDQYDVQQHEwZUZWhyYW4xETAPBgNVBAoTCEtp
c2h3YXJlMREwDwYDVQQLEwhJbnRlcm5ldDETMBEGA1UEAxMKQ0EgTWFuYWdlcjEl
MCMGCSqGSIb3DQEJARYWY2FtYW5hZ2VyQGtpc2h3YXJlLmNvbYIBADANBgkqhkiG
9w0BAQQFAAOBgQB0B0NXJkBRF/QmofZfXlZt4JalXpKJlRYdcbg9oX+hORzUj3l+
eXt7Tv0z5CZJLS3i/kdFf1uh5cXYYp/HScFVsLSYeWmP8isxqKZhACKaDerGlNp7
+5PRNV8mLx5YLmemry7CUcLy5aQfv9M26Kcy+qcGkjirFQC5NspU/gdXlA==
-----END CERTIFICATE-----
